; Function Attrs: null_pointer_is_valid sspstrong uwtable
define internal i32 @dissect_mms_T_structure_01(i1 noundef zeroext %0, ptr noundef %1, i32 noundef %2, ptr noundef %3, ptr noundef %4, i32 noundef %5) #0 {
  %7 = getelementptr inbounds nuw i8, ptr %3, i64 48
  %8 = load ptr, ptr %7, align 8
  %.not = icmp eq ptr %8, null
  br i1 %.not, label %23, label %9

9:                                                ; preds = %6
  %10 = getelementptr inbounds nuw i8, ptr %8, i64 48
  %11 = load ptr, ptr %10, align 8
  %.not16 = icmp eq ptr %11, null
  br i1 %.not16, label %23, label %12

12:                                               ; preds = %9
  %13 = getelementptr inbounds nuw i8, ptr %11, i64 28
  %14 = load i32, ptr %13, align 4
  %15 = icmp eq i32 %14, 5
  br i1 %15, label %16, label %23

16:                                               ; preds = %12
  %17 = getelementptr inbounds nuw i8, ptr %8, i64 16
  %18 = load i32, ptr %17, align 8
  switch i32 %18, label %23 [
    i32 3, label %19
    i32 4, label %21
  ]

19:                                               ; preds = %16
  %20 = load i32, ptr @hf_mms_iec61850_origin, align 4
  store i32 4, ptr %17, align 8
  br label %23

21:                                               ; preds = %16
  %22 = load i32, ptr @hf_mms_iec61850_origin, align 4
  br label %23

23:                                               ; preds = %16, %12, %21, %19, %9, %6
  %.0 = phi i32 [ %20, %19 ], [ %22, %21 ], [ %5, %12 ], [ %5, %9 ], [ %5, %6 ], [ %5, %16 ]
  %24 = load i32, ptr @ett_mms_T_structure_01, align 4
  %25 = tail call i32 @dissect_ber_sequence_of(i1 noundef zeroext %0, ptr noundef %3, ptr noundef %4, ptr noundef %1, i32 noundef %2, ptr noundef nonnull @T_structure_01_sequence_of, i32 noundef %.0, i32 noundef %24)
  ret i32 %25
}